; Function Attrs: mustprogress uwtable
define hidden void @_ZN17opencv_tensorflow19AttrValue_ListValue12clear_tensorEv(ptr noundef nonnull align 8 captures(none) dereferenceable(176) %0) local_unnamed_addr #3 align 2 personality ptr @__gxx_personality_v0 {
  %2 = getelementptr inbounds nuw i8, ptr %0, i64 152
  %3 = load i32, ptr %2, align 8, !tbaa !3
  %4 = icmp sgt i32 %3, 0
  br i1 %4, label %5, label %_ZN6google8protobuf16RepeatedPtrFieldIN17opencv_tensorflow11TensorProtoEE5ClearEv.exit

5:                                                ; preds = %1
  %6 = getelementptr inbounds nuw i8, ptr %0, i64 160
  %7 = load ptr, ptr %6, align 8, !tbaa !11
  %8 = getelementptr inbounds nuw i8, ptr %7, i64 8
  %wide.trip.count.i.i = zext nneg i32 %3 to i64
  br label %9

9:                                                ; preds = %9, %5
  %indvars.iv.i.i = phi i64 [ %indvars.iv.next.i.i, %9 ], [ 0, %5 ]
  %indvars.iv.next.i.i = add nuw nsw i64 %indvars.iv.i.i, 1
  %10 = getelementptr inbounds nuw ptr, ptr %8, i64 %indvars.iv.i.i
  %11 = load ptr, ptr %10, align 8, !tbaa !12
  tail call void @_ZN17opencv_tensorflow11TensorProto5ClearEv(ptr noundef nonnull align 8 dereferenceable(224) %11)
  %exitcond.not.i.i = icmp eq i64 %indvars.iv.next.i.i, %wide.trip.count.i.i
  br i1 %exitcond.not.i.i, label %12, label %9, !llvm.loop !15

12:                                               ; preds = %9
  store i32 0, ptr %2, align 8, !tbaa !3
  br label %_ZN6google8protobuf16RepeatedPtrFieldIN17opencv_tensorflow11TensorProtoEE5ClearEv.exit

_ZN6google8protobuf16RepeatedPtrFieldIN17opencv_tensorflow11TensorProtoEE5ClearEv.exit: ; preds = %1, %12
  ret void
}